Certificate:
    Data:
        Version: 3 (0x2)
        Serial Number: 2 (0x2)
        Signature Algorithm: sha256WithRSAEncryption
        Issuer: O=Test Org, CN=Test Org rauc CA Development
        Validity
            Not Before: Jan  1 00:00:00 1970 GMT
            Not After : Dec 31 23:59:59 9999 GMT
        Subject: O=Test Org, CN=Test Org Development-1
        Subject Public Key Info:
            Public Key Algorithm: rsaEncryption
                RSA Public-Key: (2048 bit)
                Modulus:
                    00:a5:01:4e:c9:b7:e9:e6:4c:e7:de:5a:e1:14:cf:
                    0e:d5:50:de:c2:d2:8d:d8:95:77:9b:b3:46:28:cc:
                    d7:36:60:4c:39:b5:17:37:08:e8:45:43:11:0f:06:
                    d1:aa:c3:a2:86:18:eb:2d:6a:38:d6:4a:96:ab:7e:
                    8c:c3:30:dc:db:c4:e5:d3:17:fe:61:b4:6f:91:7e:
                    04:ec:74:35:2a:44:93:27:37:da:5d:8a:72:64:ca:
                    25:7e:3d:f7:53:70:05:34:bb:0d:f1:1e:66:6b:c8:
                    36:8c:b2:25:bc:5a:61:e4:14:82:20:f1:8c:d5:a1:
                    c0:26:cd:97:37:45:f8:44:fc:21:9f:eb:26:89:65:
                    16:b0:21:6c:b1:f9:60:76:cd:1b:ac:ad:aa:c8:27:
                    3f:22:47:43:f2:90:fe:e7:f5:18:24:e4:d4:f1:c5:
                    79:e7:20:7b:7f:76:93:e7:b1:8e:a5:8c:6e:90:d1:
                    7f:51:d5:cc:e8:0e:69:3a:d9:fa:87:51:d2:31:c3:
                    cd:01:d1:ac:02:8c:0e:e0:15:f0:76:1c:83:de:46:
                    e0:b1:60:36:dd:e8:0a:f4:3a:52:4e:58:76:cc:ff:
                    e4:30:70:a8:c4:5d:77:e8:c6:6c:53:f7:f4:24:71:
                    f8:65:d7:0e:f1:88:93:49:0e:1a:d7:47:28:7d:96:
                    16:db
                Exponent: 65537 (0x10001)
        X509v3 extensions:
            X509v3 Subject Key Identifier: 
                E1:F6:51:EC:5A:18:FD:5A:11:9C:96:36:F9:6D:57:06:F2:AB:35:6A
            X509v3 Authority Key Identifier: 
                keyid:7F:FB:B0:69:41:94:0F:77:AF:C9:D7:4E:9A:E5:C0:1F:62:1D:50:DA
                DirName:/O=Test Org/CN=Test Org rauc CA Development
                serial:01

            X509v3 Basic Constraints: 
                CA:FALSE
    Signature Algorithm: sha256WithRSAEncryption
         2d:27:45:02:2e:68:92:06:9f:e5:d1:38:56:d1:cc:43:36:39:
         21:d7:29:f5:ab:7f:24:6b:d3:b2:4d:d5:f9:51:f3:6b:8b:69:
         90:a4:a6:68:2e:3b:6b:e7:0c:bc:62:20:ec:21:cf:9c:5b:fc:
         6c:08:03:fc:8a:69:cd:e4:93:82:47:91:cb:e0:46:7f:e6:66:
         e3:14:db:30:52:66:6e:09:51:ae:06:ec:c5:45:5b:8b:8e:0c:
         55:13:8f:f3:7e:b4:56:f2:43:5f:10:0a:9e:36:19:8f:a5:5b:
         04:73:07:99:b9:a6:fe:05:88:20:a7:94:bc:18:71:ec:64:b6:
         c1:82:69:51:57:be:c0:cd:8f:f0:8e:52:b1:b1:cf:76:3e:94:
         80:0b:6d:f3:3b:a5:b4:ba:c6:65:29:ed:55:e3:e1:31:1f:0c:
         18:05:9b:be:6f:c9:74:21:09:9b:43:b2:e1:de:cf:a5:d9:94:
         df:e0:af:dd:65:4e:be:d5:a7:f1:a9:4b:4a:a7:a6:49:ff:4b:
         bc:39:d8:59:60:d1:79:b9:ee:3b:ba:0a:d4:63:cf:93:41:fd:
         ce:9a:61:86:20:22:e0:c4:fd:e0:d8:e9:7d:c4:0f:b1:82:0d:
         09:28:ba:5f:4e:90:05:61:37:21:f7:c2:cc:fc:22:21:03:3d:
         a2:46:63:73
-----BEGIN CERTIFICATE-----
MIIDfTCCAmWgAwIBAgIBAjANBgkqhkiG9w0BAQsFADA6MREwDwYDVQQKDAhUZXN0
IE9yZzElMCMGA1UEAwwcVGVzdCBPcmcgcmF1YyBDQSBEZXZlbG9wbWVudDAgFw03
MDAxMDEwMDAwMDBaGA85OTk5MTIzMTIzNTk1OVowNDERMA8GA1UECgwIVGVzdCBP
cmcxHzAdBgNVBAMMFlRlc3QgT3JnIERldmVsb3BtZW50LTEwggEiMA0GCSqGSIb3
DQEBAQUAA4IBDwAwggEKAoIBAQClAU7Jt+nmTOfeWuEUzw7VUN7C0o3YlXebs0Yo
zNc2YEw5tRc3COhFQxEPBtGqw6KGGOstajjWSparfozDMNzbxOXTF/5htG+RfgTs
dDUqRJMnN9pdinJkyiV+PfdTcAU0uw3xHmZryDaMsiW8WmHkFIIg8YzVocAmzZc3
RfhE/CGf6yaJZRawIWyx+WB2zRusrarIJz8iR0PykP7n9Rgk5NTxxXnnIHt/dpPn
sY6ljG6Q0X9R1czoDmk62fqHUdIxw80B0awCjA7gFfB2HIPeRuCxYDbd6Ar0OlJO
WHbM/+QwcKjEXXfoxmxT9/Qkcfhl1w7xiJNJDhrXRyh9lhbbAgMBAAGjgZEwgY4w
HQYDVR0OBBYEFOH2UexaGP1aEZyWNvltVwbyqzVqMGIGA1UdIwRbMFmAFH/7sGlB
lA93r8nXTprlwB9iHVDaoT6kPDA6MREwDwYDVQQKDAhUZXN0IE9yZzElMCMGA1UE
AwwcVGVzdCBPcmcgcmF1YyBDQSBEZXZlbG9wbWVudIIBATAJBgNVHRMEAjAAMA0G
CSqGSIb3DQEBCwUAA4IBAQAtJ0UCLmiSBp/l0ThW0cxDNjkh1yn1q38ka9OyTdX5
UfNri2mQpKZoLjtr5wy8YiDsIc+cW/xsCAP8imnN5JOCR5HL4EZ/5mbjFNswUmZu
CVGuBuzFRVuLjgxVE4/zfrRW8kNfEAqeNhmPpVsEcweZuab+BYggp5S8GHHsZLbB
gmlRV77AzY/wjlKxsc92PpSAC23zO6W0usZlKe1V4+ExHwwYBZu+b8l0IQmbQ7Lh
3s+l2ZTf4K/dZU6+1afxqUtKp6ZJ/0u8OdhZYNF5ue47ugrUY8+TQf3OmmGGICLg
xP3g2Ol9xA+xgg0JKLpfTpAFYTch98LM/CIhAz2iRmNz
-----END CERTIFICATE-----
