Certificate:
    Data:
        Version: 3 (0x2)
        Serial Number: 1 (0x1)
        Signature Algorithm: sha256WithRSAEncryption
        Issuer: O=Test Org, CN=Test Org rauc CA Development
        Validity
            Not Before: Jan  1 00:00:00 1970 GMT
            Not After : Dec 31 23:59:59 9999 GMT
        Subject: O=Test Org, CN=Test Org rauc CA Development
        Subject Public Key Info:
            Public Key Algorithm: rsaEncryption
                RSA Public-Key: (2048 bit)
                Modulus:
                    00:b1:84:63:a3:17:14:d2:b2:6f:3b:c8:fa:62:14:
                    5e:5e:25:3a:e6:62:b9:74:c0:e2:bd:c1:cb:11:6d:
                    64:ca:7a:a5:63:74:bd:3b:4e:5e:84:0d:68:75:20:
                    d3:50:34:23:a3:72:55:56:f3:6d:88:2c:46:a3:ac:
                    e6:69:ca:ad:4e:15:03:3c:d8:bf:38:47:56:f7:b1:
                    3c:08:60:04:2f:36:6a:a4:1c:72:5b:ca:4b:cb:66:
                    95:a0:29:4e:35:c2:30:a9:3d:9d:06:ad:2d:1d:cd:
                    ea:d0:48:77:14:43:66:e2:05:c9:86:35:ae:a7:db:
                    11:60:5e:87:83:93:fb:9a:7a:c3:7f:58:90:0e:2c:
                    2f:df:ee:96:e1:10:70:c2:0e:ff:5b:b8:46:d6:af:
                    ff:a3:c8:ef:dd:ef:65:47:f8:21:54:b0:d6:ce:43:
                    a7:20:0d:6d:d4:c7:05:29:f3:63:12:94:43:6f:25:
                    e3:d1:17:5e:63:fa:50:50:0d:05:ea:2a:48:a4:b6:
                    e7:31:94:db:e6:0d:e1:31:86:dc:39:de:d6:32:44:
                    de:e2:95:80:67:49:d5:2e:a5:a6:0d:98:dc:6f:b2:
                    b8:9c:74:24:d6:2a:10:a2:64:7d:cb:05:4e:d4:4c:
                    bb:f8:dd:7e:36:83:ad:4f:ff:59:95:75:ab:72:ad:
                    67:97
                Exponent: 65537 (0x10001)
        X509v3 extensions:
            X509v3 Subject Key Identifier: 
                7F:FB:B0:69:41:94:0F:77:AF:C9:D7:4E:9A:E5:C0:1F:62:1D:50:DA
            X509v3 Authority Key Identifier: 
                keyid:7F:FB:B0:69:41:94:0F:77:AF:C9:D7:4E:9A:E5:C0:1F:62:1D:50:DA
                DirName:/O=Test Org/CN=Test Org rauc CA Development
                serial:01

            X509v3 Basic Constraints: 
                CA:TRUE
    Signature Algorithm: sha256WithRSAEncryption
         3e:c8:ba:76:96:ac:7a:e0:46:49:0f:ce:58:a5:8b:76:13:66:
         c0:b3:5b:80:84:69:11:3a:85:e8:ef:58:7d:27:2c:19:27:0a:
         d9:fa:71:56:6d:47:53:66:30:68:06:68:15:6f:c2:73:43:17:
         72:28:95:48:76:64:e7:74:f4:d5:6f:6d:8b:c1:bb:a7:99:a3:
         ca:cc:ba:55:4d:c8:ae:ef:35:f9:ee:53:0e:65:aa:b9:47:0a:
         e6:ab:70:be:e7:33:d0:86:06:7e:55:50:8e:2c:ab:5d:63:ca:
         17:92:6f:71:1b:70:3b:e7:99:65:c1:55:e6:2b:61:46:f8:83:
         c6:f6:17:2a:21:1b:34:d8:29:c5:3b:c9:d5:54:01:1b:33:91:
         12:c1:8c:cb:dd:52:fb:9e:4d:5a:03:2f:f0:58:7d:df:3f:3a:
         91:98:86:7b:82:b7:31:51:d4:c4:67:4f:f1:a7:59:e5:47:57:
         27:71:98:26:02:d9:b7:cd:52:c7:b2:8e:89:f0:6a:4a:d7:e8:
         33:bb:72:f0:b0:33:5c:3e:27:ed:41:6f:b1:c9:e1:05:e7:d7:
         d7:76:64:3e:2b:fa:07:3a:07:ff:d2:58:6f:4f:b2:6c:ea:5f:
         7d:20:99:ae:9d:99:7d:44:7e:5b:9e:c8:43:1f:4e:f8:43:7c:
         68:f6:4b:6e
-----BEGIN CERTIFICATE-----
MIIDhjCCAm6gAwIBAgIBATANBgkqhkiG9w0BAQsFADA6MREwDwYDVQQKDAhUZXN0
IE9yZzElMCMGA1UEAwwcVGVzdCBPcmcgcmF1YyBDQSBEZXZlbG9wbWVudDAgFw03
MDAxMDEwMDAwMDBaGA85OTk5MTIzMTIzNTk1OVowOjERMA8GA1UECgwIVGVzdCBP
cmcxJTAjBgNVBAMMHFRlc3QgT3JnIHJhdWMgQ0EgRGV2ZWxvcG1lbnQwggEiMA0G
CSqGSIb3DQEBAQUAA4IBDwAwggEKAoIBAQCxhGOjFxTSsm87yPpiFF5eJTrmYrl0
wOK9wcsRbWTKeqVjdL07Tl6EDWh1INNQNCOjclVW822ILEajrOZpyq1OFQM82L84
R1b3sTwIYAQvNmqkHHJbykvLZpWgKU41wjCpPZ0GrS0dzerQSHcUQ2biBcmGNa6n
2xFgXoeDk/uaesN/WJAOLC/f7pbhEHDCDv9buEbWr/+jyO/d72VH+CFUsNbOQ6cg
DW3UxwUp82MSlENvJePRF15j+lBQDQXqKkiktucxlNvmDeExhtw53tYyRN7ilYBn
SdUupaYNmNxvsricdCTWKhCiZH3LBU7UTLv43X42g61P/1mVdatyrWeXAgMBAAGj
gZQwgZEwHQYDVR0OBBYEFH/7sGlBlA93r8nXTprlwB9iHVDaMGIGA1UdIwRbMFmA
FH/7sGlBlA93r8nXTprlwB9iHVDaoT6kPDA6MREwDwYDVQQKDAhUZXN0IE9yZzEl
MCMGA1UEAwwcVGVzdCBPcmcgcmF1YyBDQSBEZXZlbG9wbWVudIIBATAMBgNVHRME
BTADAQH/MA0GCSqGSIb3DQEBCwUAA4IBAQA+yLp2lqx64EZJD85YpYt2E2bAs1uA
hGkROoXo71h9JywZJwrZ+nFWbUdTZjBoBmgVb8JzQxdyKJVIdmTndPTVb22Lwbun
maPKzLpVTciu7zX57lMOZaq5Rwrmq3C+5zPQhgZ+VVCOLKtdY8oXkm9xG3A755ll
wVXmK2FG+IPG9hcqIRs02CnFO8nVVAEbM5ESwYzL3VL7nk1aAy/wWH3fPzqRmIZ7
grcxUdTEZ0/xp1nlR1cncZgmAtm3zVLHso6J8GpK1+gzu3LwsDNcPiftQW+xyeEF
59fXdmQ+K/oHOgf/0lhvT7Js6l99IJmunZl9RH5bnshDH074Q3xo9ktu
-----END CERTIFICATE-----
